target datalayout = "e-m:e-p270:32:32-p271:32:32-p272:64:64-i64:64-i128:128-f80:128-n8:16:32:64-S128"
target triple = "x86_64-pc-linux-gnu"

%"struct.std::_Rb_tree_header" = type { %"struct.std::_Rb_tree_node_base", i64 }
%"struct.std::_Rb_tree_node_base" = type { i32, ptr, ptr, ptr }
%"class.std::map.6" = type { %"class.std::_Rb_tree.7" }
%"class.std::_Rb_tree.7" = type { %"struct.std::_Rb_tree<open_spiel::euchre::Suit, std::pair<const open_spiel::euchre::Suit, open_spiel::euchre::Suit>, std::_Select1st<std::pair<const open_spiel::euchre::Suit, open_spiel::euchre::Suit>>, std::less<open_spiel::euchre::Suit>>::_Rb_tree_impl" }
%"struct.std::_Rb_tree<open_spiel::euchre::Suit, std::pair<const open_spiel::euchre::Suit, open_spiel::euchre::Suit>, std::_Select1st<std::pair<const open_spiel::euchre::Suit, open_spiel::euchre::Suit>>, std::less<open_spiel::euchre::Suit>>::_Rb_tree_impl" = type { [8 x i8], %"struct.std::_Rb_tree_header" }

@_ZN10open_spiel6euchre12_GLOBAL__N_115same_color_suitE = internal global %"class.std::map.6" zeroinitializer, align 8

; Function Attrs: mustprogress nounwind uwtable
define linkonce_odr noundef i32 @_ZN10open_spiel6euchre8CardRankEi(i32 noundef %0) #5 comdat {
  %2 = alloca i32, align 4
  store i32 %0, ptr %2, align 4
  %3 = load i32, ptr %2, align 4
  %4 = sdiv i32 %3, 4
  ret i32 %4
}

; Function Attrs: mustprogress nounwind uwtable
define linkonce_odr noundef i32 @_ZN10open_spiel6euchre8CardSuitEi(i32 noundef %0) #5 comdat {
  %2 = alloca i32, align 4
  store i32 %0, ptr %2, align 4
  %3 = load i32, ptr %2, align 4
  %4 = srem i32 %3, 4
  ret i32 %4
}

; Function Attrs: mustprogress uwtable
define noundef i32 @_ZN10open_spiel6euchre8CardSuitEiNS0_4SuitE(i32 noundef %0, i32 noundef %1) #4 {
  %3 = alloca i32, align 4
  %4 = alloca i32, align 4
  %5 = alloca i32, align 4
  store i32 %0, ptr %3, align 4
  store i32 %1, ptr %4, align 4
  %6 = load i32, ptr %3, align 4
  %7 = call noundef i32 @_ZN10open_spiel6euchre8CardSuitEi(i32 noundef %6)
  store i32 %7, ptr %5, align 4
  %8 = load i32, ptr %3, align 4
  %9 = call noundef i32 @_ZN10open_spiel6euchre8CardRankEi(i32 noundef %8)
  %10 = icmp eq i32 %9, 2
  br i1 %10, label %11, label %18

11:                                               ; preds = %2
  %12 = call noundef nonnull align 4 dereferenceable(4) ptr @_ZNSt3mapIN10open_spiel6euchre4SuitES2_St4lessIS2_ESaISt4pairIKS2_S2_EEEixERS6_(ptr noundef nonnull align 8 dereferenceable(48) @_ZN10open_spiel6euchre12_GLOBAL__N_115same_color_suitE, ptr noundef nonnull align 4 dereferenceable(4) %5)
  %13 = load i32, ptr %12, align 4
  %14 = load i32, ptr %4, align 4
  %15 = icmp eq i32 %13, %14
  br i1 %15, label %16, label %18

16:                                               ; preds = %11
  %17 = load i32, ptr %4, align 4
  store i32 %17, ptr %5, align 4
  br label %18

18:                                               ; preds = %16, %11, %2
  %19 = load i32, ptr %5, align 4
  ret i32 %19
}