; Function Attrs: mustprogress uwtable
define noundef i32 @_ZN10open_spiel6euchre8CardSuitEiNS0_4SuitE(i32 noundef %0, i32 noundef %1) local_unnamed_addr #3 {
  %3 = alloca i32, align 4
  %4 = srem i32 %0, 4
  store i32 %4, ptr %3, align 4
  %5 = and i32 %0, -4
  %6 = icmp eq i32 %5, 8
  br i1 %6, label %7, label %._crit_edge

7:                                                ; preds = %2
  %8 = call noundef nonnull align 4 dereferenceable(4) ptr @_ZNSt3mapIN10open_spiel6euchre4SuitES2_St4lessIS2_ESaISt4pairIKS2_S2_EEEixERS6_(ptr noundef nonnull align 8 dereferenceable(48) @_ZN10open_spiel6euchre12_GLOBAL__N_115same_color_suitE, ptr noundef nonnull align 4 dereferenceable(4) %3)
  %9 = load i32, ptr %8, align 4
  %10 = icmp eq i32 %9, %1
  %.pre = load i32, ptr %3, align 4
  %spec.select = select i1 %10, i32 %1, i32 %.pre
  br label %._crit_edge

._crit_edge:                                      ; preds = %7, %2
  %11 = phi i32 [ %4, %2 ], [ %spec.select, %7 ]
  ret i32 %11
}